(lp0
(dp1
Vrelease
p2
Vandroid_7.1.2
p3
sVdevice
p4
V201bd2fd7d74
p5
sVpass
p6
L1L
sVphone_name
p7
VXiaomi_Redmi
p8
sVfail
p9
L0L
sa(dp10
Vfail
p11
L1L
sVdevice
p12
V127.0.0.1:21503
p13
sVpass
p14
L0L
sVphone_name
p15
Vbrand1_model2
p16
sVrelease
p17
Vandroid_5.1.1
p18
sa.