(lp0
(dp1
Vphone_name
p2
Vbrand1_model2
p3
sVpass
p4
L1L
sVdevice
p5
V127.0.0.1:21523
p6
sVfail
p7
L0L
sVrelease
p8
Vandroid_5.1.1
p9
sa(dp10
Vphone_name
p11
Vbrand1_model2
p12
sVpass
p13
L1L
sVdevice
p14
V127.0.0.1:21503
p15
sVfail
p16
L1L
sVrelease
p17
Vandroid_5.1.1
p18
sa.