(lp0
(dp1
Vpass
p2
L1L
sVphone_name
p3
Vbrand1_model2
p4
sVdevice
p5
V127.0.0.1:21513
p6
sVrelease
p7
Vandroid_7.1.2
p8
sVfail
p9
L0L
sa(dp10
Vpass
p11
L1L
sVphone_name
p12
Vbrand1_model2
p13
sVdevice
p14
V127.0.0.1:21523
p15
sVrelease
p16
Vandroid_5.1.1
p17
sVfail
p18
L0L
sa(dp19
Vpass
p20
L1L
sVphone_name
p21
Vbrand1_model2
p22
sVdevice
p23
V127.0.0.1:21503
p24
sVrelease
p25
Vandroid_5.1.1
p26
sVfail
p27
L1L
sa.