(dp0
VtestDate
p1
V2018-10-11 17:09:15
p2
sVappName
p3
VWeChat
p4
sVsum
p5
L1L
sVpackageName
p6
Vcom.tencent.mm
p7
sVpass
p8
L0L
sVversionCode
p9
V1300
p10
sVversionName
p11
V6.6.6
p12
sVtestSumDate
p13
V62\u79d2
p14
sVfail
p15
L1L
s.