(dp0
VversionName
p1
V6.6.6
p2
sVpackageName
p3
Vcom.tencent.mm
p4
sVversionCode
p5
V1300
p6
sVpass
p7
L0L
sVfail
p8
L0L
sVtestSumDate
p9
V81\u79d2
p10
sVtestDate
p11
V2018-10-19 17:09:37
p12
sVsum
p13
L0L
sVappName
p14
VWeChat
p15
s.