(dp0
VversionCode
p1
V1300
p2
sVsum
p3
L1L
sVpass
p4
L1L
sVversionName
p5
V6.6.6
p6
sVtestDate
p7
V2018-12-19 14:31:07
p8
sVtestSumDate
p9
V14\u79d2
p10
sVfail
p11
L0L
sVappName
p12
VWeChat
p13
sVpackageName
p14
Vcom.tencent.mm
p15
s.