(dp0
VpackageName
p1
Vcom.tencent.mm
p2
sVversionCode
p3
V1300
p4
sVversionName
p5
V6.6.6
p6
sVtestDate
p7
V2018-09-27 17:54:47
p8
sVpass
p9
L0L
sVfail
p10
L0L
sVappName
p11
VWeChat
p12
sVtestSumDate
p13
V0\u79d2
p14
sVsum
p15
L0L
s.