(dp0
VpackageName
p1
Vcom.tencent.mm
p2
sVpass
p3
L1L
sVappName
p4
VWeChat
p5
sVtestDate
p6
V2018-10-17 11:45:18
p7
sVtestSumDate
p8
V43\u79d2
p9
sVsum
p10
L1L
sVversionCode
p11
V1300
p12
sVfail
p13
L0L
sVversionName
p14
V6.6.6
p15
s.