(dp0
VversionCode
p1
V1300
p2
sVpass
p3
L1L
sVsum
p4
L1L
sVversionName
p5
V6.6.6
p6
sVtestSumDate
p7
V14\u79d2
p8
sVfail
p9
L0L
sVpackageName
p10
Vcom.tencent.mm
p11
sVtestDate
p12
V2018-12-18 21:23:22
p13
sVappName
p14
VWeChat
p15
s.