(dp0
VversionName
p1
V6.6.6
p2
sVfail
p3
L0L
sVappName
p4
VWeChat
p5
sVversionCode
p6
V1300
p7
sVtestSumDate
p8
V0\u79d2
p9
sVtestDate
p10
V2018-10-10 17:08:05
p11
sVpass
p12
L0L
sVpackageName
p13
Vcom.tencent.mm
p14
sVsum
p15
L0L
s.