(dp0
VtestDate
p1
V2018-12-19 12:52:47
p2
sVversionName
p3
V6.6.6
p4
sVappName
p5
VWeChat
p6
sVpass
p7
L2L
sVversionCode
p8
V1300
p9
sVtestSumDate
p10
V81\u79d2
p11
sVfail
p12
L1L
sVpackageName
p13
Vcom.tencent.mm
p14
sVsum
p15
L3L
s.