(dp0
VversionCode
p1
V1300
p2
sVversionName
p3
V6.6.6
p4
sVtestSumDate
p5
V71\u79d2
p6
sVtestDate
p7
V2018-12-19 18:51:11
p8
sVsum
p9
L1L
sVfail
p10
L1L
sVappName
p11
VWeChat
p12
sVpackageName
p13
Vcom.tencent.mm
p14
sVpass
p15
L0L
s.