(dp0
Vfail
p1
L0L
sVtestDate
p2
V2018-10-15 17:25:20
p3
sVpackageName
p4
Vcom.tencent.mm
p5
sVtestSumDate
p6
V28\u79d2
p7
sVpass
p8
L1L
sVversionName
p9
V6.6.6
p10
sVsum
p11
L1L
sVversionCode
p12
V1300
p13
sVappName
p14
VWeChat
p15
s.