(dp0
VpackageName
p1
Vcom.tencent.mm
p2
sVpass
p3
L1L
sVsum
p4
L2L
sVtestDate
p5
V2018-09-20 17:23:41
p6
sVfail
p7
L1L
sVversionCode
p8
V1300
p9
sVappName
p10
VWeChat
p11
sVversionName
p12
V6.6.6
p13
sVtestSumDate
p14
V52\u79d2
p15
s.