(dp0
Vsum
p1
L1L
sVpass
p2
L0L
sVtestSumDate
p3
V600\u79d2
p4
sVversionName
p5
V6.6.6
p6
sVpackageName
p7
Vcom.tencent.mm
p8
sVversionCode
p9
V1300
p10
sVappName
p11
VWeChat
p12
sVfail
p13
L1L
sVtestDate
p14
V2018-10-18 17:00:29
p15
s.