(dp0
Vpass
p1
L2L
sVsum
p2
L3L
sVappName
p3
VWeChat
p4
sVversionCode
p5
V1300
p6
sVtestDate
p7
V2018-09-27 22:19:57
p8
sVversionName
p9
V6.6.6
p10
sVtestSumDate
p11
V60\u79d2
p12
sVfail
p13
L1L
sVpackageName
p14
Vcom.tencent.mm
p15
s.