(dp0
VtestSumDate
p1
V64\u79d2
p2
sVpass
p3
L3L
sVsum
p4
L4L
sVtestDate
p5
V2018-09-28 17:09:16
p6
sVversionName
p7
V6.6.6
p8
sVpackageName
p9
Vcom.tencent.mm
p10
sVversionCode
p11
V1300
p12
sVfail
p13
L1L
sVappName
p14
VWeChat
p15
s.