(dp0
Vpass
p1
L0L
sVsum
p2
L0L
sVtestDate
p3
V2018-10-22 17:09:35
p4
sVpackageName
p5
Vcom.tencent.mm
p6
sVversionName
p7
V6.6.6
p8
sVappName
p9
VWeChat
p10
sVversionCode
p11
V1300
p12
sVfail
p13
L0L
sVtestSumDate
p14
V80\u79d2
p15
s.