(dp0
VpackageName
p1
Vcom.tencent.mm
p2
sVfail
p3
L0L
sVversionName
p4
V6.6.6
p5
sVappName
p6
VWeChat
p7
sVsum
p8
L0L
sVpass
p9
L0L
sVtestDate
p10
V2018-10-17 17:09:00
p11
sVversionCode
p12
V1300
p13
sVtestSumDate
p14
V46\u79d2
p15
s.