(dp0
Vsum
p1
L1L
sVversionName
p2
V6.6.6
p3
sVtestSumDate
p4
V28\u79d2
p5
sVtestDate
p6
V2018-10-16 13:43:18
p7
sVfail
p8
L0L
sVpass
p9
L1L
sVappName
p10
VWeChat
p11
sVpackageName
p12
Vcom.tencent.mm
p13
sVversionCode
p14
V1300
p15
s.