(dp0
VversionName
p1
V6.6.6
p2
sVpass
p3
L0L
sVtestDate
p4
V2018-11-02 17:44:26
p5
sVtestSumDate
p6
V52\u79d2
p7
sVversionCode
p8
V1300
p9
sVsum
p10
L1L
sVfail
p11
L1L
sVappName
p12
VWeChat
p13
sVpackageName
p14
Vcom.tencent.mm
p15
s.