(lp0
(dp1
Vpass
p2
L1L
sVrelease
p3
Vandroid_5.1.1
p4
sVfail
p5
L0L
sVphone_name
p6
Vbrand1_model2
p7
sVdevice
p8
V127.0.0.1:21513
p9
sa(dp10
Vpass
p11
L1L
sVdevice
p12
V201bd2fd7d74
p13
sVrelease
p14
Vandroid_7.1.2
p15
sVfail
p16
L0L
sVphone_name
p17
VXiaomi_Redmi
p18
sa.