(dp0
VversionName
p1
V6.6.6
p2
sVpackageName
p3
Vcom.tencent.mm
p4
sVtestSumDate
p5
V14\u79d2
p6
sVpass
p7
L1L
sVfail
p8
L0L
sVappName
p9
VWeChat
p10
sVversionCode
p11
V1300
p12
sVsum
p13
L1L
sVtestDate
p14
V2018-09-19 17:32:59
p15
s.