(dp0
Vpass
p1
L2L
sVversionCode
p2
V1300
p3
sVtestDate
p4
V2018-09-20 16:54:40
p5
sVpackageName
p6
Vcom.tencent.mm
p7
sVversionName
p8
V6.6.6
p9
sVtestSumDate
p10
V24\u79d2
p11
sVappName
p12
VWeChat
p13
sVfail
p14
L0L
sVsum
p15
L2L
s.